; Function Attrs: mustprogress nounwind uwtable
define dso_local void @_ZNK4llvm3pdb16NativeSourceFile11getChecksumB5cxx11Ev(ptr dead_on_unwind noalias writable sret(%"class.std::__cxx11::basic_string") align 8 %0, ptr noundef nonnull readonly align 8 captures(none) dereferenceable(48) %1) unnamed_addr #2 align 2 {
  %3 = alloca %"class.std::allocator.42", align 1
  %4 = getelementptr inbounds nuw i8, ptr %1, i64 32
  %.sroa.0.0.copyload = load ptr, ptr %4, align 8
  %.sroa.2.0..sroa_idx = getelementptr inbounds nuw i8, ptr %1, i64 40
  %.sroa.2.0.copyload = load i64, ptr %.sroa.2.0..sroa_idx, align 8
  call void @llvm.lifetime.start.p0(i64 1, ptr nonnull %3)
  %.not.i = icmp eq ptr %.sroa.0.0.copyload, null
  br i1 %.not.i, label %5, label %6

5:                                                ; preds = %2
  tail call void @_ZNSt7__cxx1112basic_stringIcSt11char_traitsIcESaIcEEC1Ev(ptr noundef nonnull align 8 dereferenceable(32) %0) #14
  br label %_ZNK4llvm9StringRef3strB5cxx11Ev.exit

6:                                                ; preds = %2
  call void @_ZNSaIcEC1Ev(ptr noundef nonnull align 1 dereferenceable(1) %3) #14, !noalias !10
  call void @_ZNSt7__cxx1112basic_stringIcSt11char_traitsIcESaIcEEC1EPKcmRKS3_(ptr noundef nonnull align 8 dereferenceable(32) %0, ptr noundef nonnull %.sroa.0.0.copyload, i64 noundef %.sroa.2.0.copyload, ptr noundef nonnull align 1 dereferenceable(1) %3) #14
  call void @_ZNSaIcED1Ev(ptr noundef nonnull align 1 dereferenceable(1) %3) #14
  br label %_ZNK4llvm9StringRef3strB5cxx11Ev.exit

_ZNK4llvm9StringRef3strB5cxx11Ev.exit:            ; preds = %5, %6
  call void @llvm.lifetime.end.p0(i64 1, ptr nonnull %3)
  ret void
}